; Function Attrs: nofree norecurse nosync nounwind memory(argmem: write) uwtable
define dso_local void @Ppmd8_Construct(ptr noundef writeonly captures(none) initializes((56, 64)) %0) #0 {
  %2 = getelementptr inbounds nuw i8, ptr %0, i64 56
  store ptr null, ptr %2, align 8, !tbaa !4
  %3 = getelementptr inbounds nuw i8, ptr %0, i64 166
  %4 = getelementptr inbounds nuw i8, ptr %0, i64 128
  br label %5

5:                                                ; preds = %1, %17
  %indvars.iv = phi i64 [ 0, %1 ], [ %indvars.iv.next, %17 ]
  %.02936 = phi i32 [ 0, %1 ], [ %13, %17 ]
  %6 = icmp samesign ugt i64 %indvars.iv, 11
  %7 = trunc nuw nsw i64 %indvars.iv to i32
  %8 = lshr i32 %7, 2
  %9 = add nuw nsw i32 %8, 1
  %10 = select i1 %6, i32 4, i32 %9
  %11 = trunc i64 %indvars.iv to i8
  br label %12

12:                                               ; preds = %12, %5
  %.130 = phi i32 [ %.02936, %5 ], [ %13, %12 ]
  %.0 = phi i32 [ %10, %5 ], [ %16, %12 ]
  %13 = add i32 %.130, 1
  %14 = zext i32 %.130 to i64
  %15 = getelementptr inbounds nuw [128 x i8], ptr %3, i64 0, i64 %14
  store i8 %11, ptr %15, align 1, !tbaa !14
  %16 = add i32 %.0, -1
  %.not = icmp eq i32 %16, 0
  br i1 %.not, label %17, label %12, !llvm.loop !15

17:                                               ; preds = %12
  %18 = trunc i32 %13 to i8
  %19 = getelementptr inbounds nuw [38 x i8], ptr %4, i64 0, i64 %indvars.iv
  store i8 %18, ptr %19, align 1, !tbaa !14
  %indvars.iv.next = add nuw nsw i64 %indvars.iv, 1
  %exitcond.not = icmp eq i64 %indvars.iv.next, 38
  br i1 %exitcond.not, label %20, label %5, !llvm.loop !17

20:                                               ; preds = %17
  %21 = getelementptr inbounds nuw i8, ptr %0, i64 600
  store i8 0, ptr %21, align 8, !tbaa !14
  %22 = getelementptr inbounds nuw i8, ptr %0, i64 601
  store i8 2, ptr %22, align 1, !tbaa !14
  %23 = getelementptr inbounds nuw i8, ptr %0, i64 602
  tail call void @llvm.memset.p0.i64(ptr noundef nonnull align 1 dereferenceable(9) %23, i8 4, i64 9, i1 false)
  %24 = getelementptr inbounds nuw i8, ptr %0, i64 611
  tail call void @llvm.memset.p0.i64(ptr noundef nonnull align 1 dereferenceable(245) %24, i8 6, i64 245, i1 false)
  %25 = getelementptr inbounds nuw i8, ptr %0, i64 856
  br label %26

26:                                               ; preds = %20, %26
  %indvars.iv43 = phi i64 [ 0, %20 ], [ %indvars.iv.next44, %26 ]
  %27 = trunc i64 %indvars.iv43 to i8
  %28 = getelementptr inbounds nuw [260 x i8], ptr %25, i64 0, i64 %indvars.iv43
  store i8 %27, ptr %28, align 1, !tbaa !14
  %indvars.iv.next44 = add nuw nsw i64 %indvars.iv43, 1
  %exitcond46.not = icmp eq i64 %indvars.iv.next44, 5
  br i1 %exitcond46.not, label %.lr.ph, label %26, !llvm.loop !18

.lr.ph:                                           ; preds = %26, %.lr.ph
  %indvars.iv47 = phi i64 [ %indvars.iv.next48, %.lr.ph ], [ 5, %26 ]
  %.02840 = phi i32 [ %.1, %.lr.ph ], [ 5, %26 ]
  %.239 = phi i32 [ %.3, %.lr.ph ], [ 1, %26 ]
  %29 = trunc i32 %.02840 to i8
  %30 = getelementptr inbounds nuw [260 x i8], ptr %25, i64 0, i64 %indvars.iv47
  store i8 %29, ptr %30, align 1, !tbaa !14
  %31 = add i32 %.239, -1
  %32 = icmp eq i32 %31, 0
  %33 = add i32 %.02840, -3
  %.3 = select i1 %32, i32 %33, i32 %31
  %34 = zext i1 %32 to i32
  %.1 = add i32 %.02840, %34
  %indvars.iv.next48 = add nuw nsw i64 %indvars.iv47, 1
  %exitcond50.not = icmp eq i64 %indvars.iv.next48, 260
  br i1 %exitcond50.not, label %._crit_edge, label %.lr.ph, !llvm.loop !19

._crit_edge:                                      ; preds = %.lr.ph
  ret void
}